; Function Attrs: nounwind uwtable
define ptr @l_observing___rarg(ptr noundef %0, ptr noundef %1, ptr noundef %2) #0 {
  %4 = getelementptr inbounds nuw i8, ptr %1, i64 16
  %5 = load ptr, ptr %4, align 8, !tbaa !9
  %6 = ptrtoint ptr %5 to i64
  %7 = and i64 %6, 1
  %.not = icmp eq i64 %7, 0
  br i1 %.not, label %8, label %lean_inc.exit18

8:                                                ; preds = %3
  %.val.i = load i32, ptr %5, align 4, !tbaa !4
  %9 = icmp sgt i32 %.val.i, 0
  br i1 %9, label %10, label %12, !prof !13

10:                                               ; preds = %8
  %11 = add nuw i32 %.val.i, 1
  store i32 %11, ptr %5, align 4, !tbaa !4
  br label %lean_inc.exit18

12:                                               ; preds = %8
  %.not.i19 = icmp eq i32 %.val.i, 0
  br i1 %.not.i19, label %lean_inc.exit18, label %13

13:                                               ; preds = %12
  tail call void @lean_inc_ref_cold(ptr noundef nonnull %5) #5
  br label %lean_inc.exit18

lean_inc.exit18:                                  ; preds = %13, %12, %10, %3
  %14 = ptrtoint ptr %1 to i64
  %15 = and i64 %14, 1
  %.not27 = icmp eq i64 %15, 0
  br i1 %.not27, label %16, label %lean_dec.exit

16:                                               ; preds = %lean_inc.exit18
  %17 = load i32, ptr %1, align 4, !tbaa !4
  %18 = icmp sgt i32 %17, 1
  br i1 %18, label %19, label %21, !prof !13

19:                                               ; preds = %16
  %20 = add nsw i32 %17, -1
  store i32 %20, ptr %1, align 4, !tbaa !4
  br label %lean_dec.exit

21:                                               ; preds = %16
  %.not.i = icmp eq i32 %17, 0
  br i1 %.not.i, label %lean_dec.exit, label %22

22:                                               ; preds = %21
  tail call void @lean_dec_ref_cold(ptr noundef nonnull %1) #5
  br label %lean_dec.exit

lean_dec.exit:                                    ; preds = %22, %21, %19, %lean_inc.exit18
  %23 = getelementptr inbounds nuw i8, ptr %0, i64 16
  %24 = load ptr, ptr %23, align 8, !tbaa !9
  %25 = ptrtoint ptr %24 to i64
  %26 = and i64 %25, 1
  %.not28 = icmp eq i64 %26, 0
  br i1 %.not28, label %27, label %lean_inc.exit17

27:                                               ; preds = %lean_dec.exit
  %.val.i20 = load i32, ptr %24, align 4, !tbaa !4
  %28 = icmp sgt i32 %.val.i20, 0
  br i1 %28, label %29, label %31, !prof !13

29:                                               ; preds = %27
  %30 = add nuw i32 %.val.i20, 1
  store i32 %30, ptr %24, align 4, !tbaa !4
  br label %lean_inc.exit17

31:                                               ; preds = %27
  %.not.i21 = icmp eq i32 %.val.i20, 0
  br i1 %.not.i21, label %lean_inc.exit17, label %32

32:                                               ; preds = %31
  tail call void @lean_inc_ref_cold(ptr noundef nonnull %24) #5
  br label %lean_inc.exit17

lean_inc.exit17:                                  ; preds = %32, %31, %29, %lean_dec.exit
  %33 = ptrtoint ptr %0 to i64
  %34 = and i64 %33, 1
  %.not29 = icmp eq i64 %34, 0
  br i1 %.not29, label %35, label %lean_inc.exit

35:                                               ; preds = %lean_inc.exit17
  %.val.i23 = load i32, ptr %0, align 4, !tbaa !4
  %36 = icmp sgt i32 %.val.i23, 0
  br i1 %36, label %37, label %39, !prof !13

37:                                               ; preds = %35
  %38 = add nuw i32 %.val.i23, 1
  store i32 %38, ptr %0, align 4, !tbaa !4
  br label %lean_inc.exit

39:                                               ; preds = %35
  %.not.i24 = icmp eq i32 %.val.i23, 0
  br i1 %.not.i24, label %lean_inc.exit, label %40

40:                                               ; preds = %39
  tail call void @lean_inc_ref_cold(ptr noundef nonnull %0) #5
  br label %lean_inc.exit

lean_inc.exit:                                    ; preds = %40, %39, %37, %lean_inc.exit17
  tail call void @lean_inc_heartbeat() #5
  %41 = tail call noalias ptr @mi_malloc_small(i64 noundef 32) #5
  %42 = icmp eq ptr %41, null
  br i1 %42, label %43, label %lean_alloc_closure.exit

43:                                               ; preds = %lean_inc.exit
  tail call void @lean_internal_panic_out_of_memory() #6
  unreachable

lean_alloc_closure.exit:                          ; preds = %lean_inc.exit
  %44 = getelementptr inbounds nuw i8, ptr %41, i64 4
  store i32 1, ptr %41, align 4, !tbaa !4
  store i32 -184549344, ptr %44, align 4
  %45 = getelementptr inbounds nuw i8, ptr %41, i64 8
  store ptr @l_observing___rarg___lambda__1, ptr %45, align 8, !tbaa !9
  %46 = getelementptr inbounds nuw i8, ptr %41, i64 16
  store i16 2, ptr %46, align 8, !tbaa !11
  %47 = getelementptr inbounds nuw i8, ptr %41, i64 18
  store i16 1, ptr %47, align 2, !tbaa !11
  %48 = getelementptr inbounds nuw i8, ptr %41, i64 24
  store ptr %0, ptr %48, align 8, !tbaa !9
  %49 = tail call ptr @lean_apply_4(ptr noundef %24, ptr noundef nonnull inttoptr (i64 1 to ptr), ptr noundef nonnull inttoptr (i64 1 to ptr), ptr noundef %2, ptr noundef nonnull %41) #5
  tail call void @lean_inc_heartbeat() #5
  %50 = tail call noalias ptr @mi_malloc_small(i64 noundef 32) #5
  %51 = icmp eq ptr %50, null
  br i1 %51, label %52, label %lean_alloc_closure.exit26

52:                                               ; preds = %lean_alloc_closure.exit
  tail call void @lean_internal_panic_out_of_memory() #6
  unreachable

lean_alloc_closure.exit26:                        ; preds = %lean_alloc_closure.exit
  %53 = getelementptr inbounds nuw i8, ptr %50, i64 4
  store i32 1, ptr %50, align 4, !tbaa !4
  store i32 -184549344, ptr %53, align 4
  %54 = getelementptr inbounds nuw i8, ptr %50, i64 8
  store ptr @l_observing___rarg___lambda__2, ptr %54, align 8, !tbaa !9
  %55 = getelementptr inbounds nuw i8, ptr %50, i64 16
  store i16 2, ptr %55, align 8, !tbaa !11
  %56 = getelementptr inbounds nuw i8, ptr %50, i64 18
  store i16 1, ptr %56, align 2, !tbaa !11
  %57 = getelementptr inbounds nuw i8, ptr %50, i64 24
  store ptr %0, ptr %57, align 8, !tbaa !9
  %58 = tail call ptr @lean_apply_3(ptr noundef %5, ptr noundef nonnull inttoptr (i64 1 to ptr), ptr noundef %49, ptr noundef nonnull %50) #5
  ret ptr %58
}